target datalayout = "e-m:e-p270:32:32-p271:32:32-p272:64:64-i64:64-i128:128-f80:128-n8:16:32:64-S128"
target triple = "x86_64-pc-linux-gnu"

%struct.ssl_ctx_st = type { ptr, %union.crypto_mutex_st, i16, i16, ptr, ptr, ptr, ptr, ptr, ptr, i64, ptr, ptr, i32, i32, i64, ptr, ptr, ptr, i32, ptr, ptr, ptr, ptr, ptr, ptr, %struct.crypto_ex_data_st, ptr, ptr, ptr, ptr, i32, i32, i32, ptr, ptr, ptr, i32, i32, [32 x i8], ptr, ptr, ptr, ptr, i16, ptr, ptr, [16 x i8], [16 x i8], [16 x i8], ptr, ptr, ptr, ptr, i8, ptr, ptr, ptr, ptr, ptr, ptr, ptr, i32, ptr, i64, ptr, ptr, ptr, i64, ptr, i64, ptr, ptr, i8, ptr, i32 }
%union.crypto_mutex_st = type { double, [48 x i8] }
%struct.crypto_ex_data_st = type { ptr }

; Function Attrs: nounwind uwtable
define hidden i32 @SSL_CTX_set_ocsp_response(ptr noundef %0, ptr noundef %1, i64 noundef %2) #0 {
  %4 = alloca i32, align 4
  %5 = alloca ptr, align 8
  %6 = alloca ptr, align 8
  %7 = alloca i64, align 8
  store ptr %0, ptr %5, align 8, !tbaa !11
  store ptr %1, ptr %6, align 8, !tbaa !55
  store i64 %2, ptr %7, align 8, !tbaa !174
  %8 = load ptr, ptr %5, align 8, !tbaa !11
  %9 = getelementptr inbounds nuw %struct.ssl_ctx_st, ptr %8, i32 0, i32 69
  %10 = load ptr, ptr %9, align 8, !tbaa !75
  call void @free(ptr noundef %10) #8
  %11 = load ptr, ptr %5, align 8, !tbaa !11
  %12 = getelementptr inbounds nuw %struct.ssl_ctx_st, ptr %11, i32 0, i32 70
  store i64 0, ptr %12, align 8, !tbaa !217
  %13 = load ptr, ptr %6, align 8, !tbaa !55
  %14 = load i64, ptr %7, align 8, !tbaa !174
  %15 = call ptr @BUF_memdup(ptr noundef %13, i64 noundef %14)
  %16 = load ptr, ptr %5, align 8, !tbaa !11
  %17 = getelementptr inbounds nuw %struct.ssl_ctx_st, ptr %16, i32 0, i32 69
  store ptr %15, ptr %17, align 8, !tbaa !75
  %18 = load ptr, ptr %5, align 8, !tbaa !11
  %19 = getelementptr inbounds nuw %struct.ssl_ctx_st, ptr %18, i32 0, i32 69
  %20 = load ptr, ptr %19, align 8, !tbaa !75
  %21 = icmp eq ptr %20, null
  br i1 %21, label %22, label %23

22:                                               ; preds = %3
  store i32 0, ptr %4, align 4
  br label %27

23:                                               ; preds = %3
  %24 = load i64, ptr %7, align 8, !tbaa !174
  %25 = load ptr, ptr %5, align 8, !tbaa !11
  %26 = getelementptr inbounds nuw %struct.ssl_ctx_st, ptr %25, i32 0, i32 70
  store i64 %24, ptr %26, align 8, !tbaa !217
  store i32 1, ptr %4, align 4
  br label %27

27:                                               ; preds = %23, %22
  %28 = load i32, ptr %4, align 4
  ret i32 %28
}