; Function Attrs: nounwind uwtable
define hidden range(i32 0, 2) i32 @SSL_CTX_set_ocsp_response(ptr noundef captures(none) initializes((624, 632)) %0, ptr noundef %1, i64 noundef %2) local_unnamed_addr #0 {
  %4 = getelementptr inbounds nuw i8, ptr %0, i64 616
  %5 = load ptr, ptr %4, align 8, !tbaa !67
  tail call void @free(ptr noundef %5) #21
  %6 = getelementptr inbounds nuw i8, ptr %0, i64 624
  store i64 0, ptr %6, align 8, !tbaa !195
  %7 = tail call ptr @BUF_memdup(ptr noundef %1, i64 noundef %2) #21
  store ptr %7, ptr %4, align 8, !tbaa !67
  %8 = icmp eq ptr %7, null
  br i1 %8, label %10, label %9

9:                                                ; preds = %3
  store i64 %2, ptr %6, align 8, !tbaa !195
  br label %10

10:                                               ; preds = %3, %9
  %.0 = phi i32 [ 1, %9 ], [ 0, %3 ]
  ret i32 %.0
}